target datalayout = "e-m:e-p270:32:32-p271:32:32-p272:64:64-i64:64-i128:128-f80:128-n8:16:32:64-S128"
target triple = "x86_64-pc-linux-gnu"

%struct.ossl_provider_st = type { i32 }

@.str.12 = private unnamed_addr constant [32 x i8] c"../openssl/test/property_test.c\00", align 1
@.str.70 = private unnamed_addr constant [36 x i8] c"store = ossl_method_store_new(NULL)\00", align 1
@.str.85 = private unnamed_addr constant [2 x i8] c"n\00", align 1
@__const.test_query_cache_stochastic.prov = private unnamed_addr constant %struct.ossl_provider_st { i32 1 }, align 4
@.str.240 = private unnamed_addr constant [6 x i8] c"n=%d\0A\00", align 1
@.str.241 = private unnamed_addr constant [71 x i8] c"ossl_method_store_add(store, &prov, i, buf, \22abc\22, &up_ref, &down_ref)\00", align 1
@.str.242 = private unnamed_addr constant [4 x i8] c"abc\00", align 1
@.str.243 = private unnamed_addr constant [77 x i8] c"ossl_method_store_cache_set(store, &prov, i, buf, v + i, &up_ref, &down_ref)\00", align 1
@.str.244 = private unnamed_addr constant [83 x i8] c"ossl_method_store_cache_set(store, &prov, i, \22n=1234\22, \22miss\22, &up_ref, &down_ref)\00", align 1
@.str.245 = private unnamed_addr constant [7 x i8] c"n=1234\00", align 1
@.str.246 = private unnamed_addr constant [5 x i8] c"miss\00", align 1
@.str.247 = private unnamed_addr constant [13 x i8] c"iteration %d\00", align 1
@.str.248 = private unnamed_addr constant [7 x i8] c"errors\00", align 1
@.str.249 = private unnamed_addr constant [5 x i8] c"tail\00", align 1
@.str.250 = private unnamed_addr constant [11 x i8] c"max - tail\00", align 1

; Function Attrs: nounwind uwtable
define internal i32 @test_query_cache_stochastic() #0 {
  %1 = alloca i32, align 4
  %2 = alloca i32, align 4
  %3 = alloca ptr, align 8
  %4 = alloca i32, align 4
  %5 = alloca i32, align 4
  %6 = alloca [50 x i8], align 16
  %7 = alloca ptr, align 8
  %8 = alloca i32, align 4
  %9 = alloca [10001 x i32], align 16
  %10 = alloca %struct.ossl_provider_st, align 4
  call void @llvm.lifetime.start.p0(i64 4, ptr %1) #6
  store i32 10000, ptr %1, align 4, !tbaa !9
  call void @llvm.lifetime.start.p0(i64 4, ptr %2) #6
  store i32 10, ptr %2, align 4, !tbaa !9
  call void @llvm.lifetime.start.p0(i64 8, ptr %3) #6
  call void @llvm.lifetime.start.p0(i64 4, ptr %4) #6
  call void @llvm.lifetime.start.p0(i64 4, ptr %5) #6
  store i32 0, ptr %5, align 4, !tbaa !9
  call void @llvm.lifetime.start.p0(i64 50, ptr %6) #6
  call void @llvm.lifetime.start.p0(i64 8, ptr %7) #6
  call void @llvm.lifetime.start.p0(i64 4, ptr %8) #6
  store i32 0, ptr %8, align 4, !tbaa !9
  call void @llvm.lifetime.start.p0(i64 40004, ptr %9) #6
  call void @llvm.lifetime.start.p0(i64 4, ptr %10) #6
  call void @llvm.memcpy.p0.p0.i64(ptr align 4 %10, ptr align 4 @__const.test_query_cache_stochastic.prov, i64 4, i1 false)
  %11 = call ptr @ossl_method_store_new(ptr noundef null)
  store ptr %11, ptr %3, align 8, !tbaa !4
  %12 = call i32 @test_ptr(ptr noundef @.str.12, i32 noundef 573, ptr noundef @.str.70, ptr noundef %11)
  %13 = icmp ne i32 %12, 0
  br i1 %13, label %14, label %17

14:                                               ; preds = %0
  %15 = call i32 (ptr, ...) @add_property_names(ptr noundef @.str.85, ptr noundef null)
  %16 = icmp ne i32 %15, 0
  br i1 %16, label %18, label %17

17:                                               ; preds = %14, %0
  br label %104

18:                                               ; preds = %14
  store i32 1, ptr %4, align 4, !tbaa !9
  br label %19

19:                                               ; preds = %63, %18
  %20 = load i32, ptr %4, align 4, !tbaa !9
  %21 = icmp sle i32 %20, 10000
  br i1 %21, label %22, label %66

22:                                               ; preds = %19
  %23 = load i32, ptr %4, align 4, !tbaa !9
  %24 = mul nsw i32 2, %23
  %25 = load i32, ptr %4, align 4, !tbaa !9
  %26 = sext i32 %25 to i64
  %27 = getelementptr inbounds [10001 x i32], ptr %9, i64 0, i64 %26
  store i32 %24, ptr %27, align 4, !tbaa !9
  %28 = getelementptr inbounds [50 x i8], ptr %6, i64 0, i64 0
  %29 = load i32, ptr %4, align 4, !tbaa !9
  %30 = call i32 (ptr, i64, ptr, ...) @BIO_snprintf(ptr noundef %28, i64 noundef 50, ptr noundef @.str.240, i32 noundef %29)
  %31 = load ptr, ptr %3, align 8, !tbaa !4
  %32 = load i32, ptr %4, align 4, !tbaa !9
  %33 = getelementptr inbounds [50 x i8], ptr %6, i64 0, i64 0
  %34 = call i32 @ossl_method_store_add(ptr noundef %31, ptr noundef %10, i32 noundef %32, ptr noundef %33, ptr noundef @.str.242, ptr noundef @up_ref, ptr noundef @down_ref)
  %35 = icmp ne i32 %34, 0
  %36 = zext i1 %35 to i32
  %37 = call i32 @test_true(ptr noundef @.str.12, i32 noundef 581, ptr noundef @.str.241, i32 noundef %36)
  %38 = icmp ne i32 %37, 0
  br i1 %38, label %39, label %60

39:                                               ; preds = %22
  %40 = load ptr, ptr %3, align 8, !tbaa !4
  %41 = load i32, ptr %4, align 4, !tbaa !9
  %42 = getelementptr inbounds [50 x i8], ptr %6, i64 0, i64 0
  %43 = getelementptr inbounds [10001 x i32], ptr %9, i64 0, i64 0
  %44 = load i32, ptr %4, align 4, !tbaa !9
  %45 = sext i32 %44 to i64
  %46 = getelementptr inbounds i32, ptr %43, i64 %45
  %47 = call i32 @ossl_method_store_cache_set(ptr noundef %40, ptr noundef %10, i32 noundef %41, ptr noundef %42, ptr noundef %46, ptr noundef @up_ref, ptr noundef @down_ref)
  %48 = icmp ne i32 %47, 0
  %49 = zext i1 %48 to i32
  %50 = call i32 @test_true(ptr noundef @.str.12, i32 noundef 584, ptr noundef @.str.243, i32 noundef %49)
  %51 = icmp ne i32 %50, 0
  br i1 %51, label %52, label %60

52:                                               ; preds = %39
  %53 = load ptr, ptr %3, align 8, !tbaa !4
  %54 = load i32, ptr %4, align 4, !tbaa !9
  %55 = call i32 @ossl_method_store_cache_set(ptr noundef %53, ptr noundef %10, i32 noundef %54, ptr noundef @.str.245, ptr noundef @.str.246, ptr noundef @up_ref, ptr noundef @down_ref)
  %56 = icmp ne i32 %55, 0
  %57 = zext i1 %56 to i32
  %58 = call i32 @test_true(ptr noundef @.str.12, i32 noundef 587, ptr noundef @.str.244, i32 noundef %57)
  %59 = icmp ne i32 %58, 0
  br i1 %59, label %62, label %60

60:                                               ; preds = %52, %39, %22
  %61 = load i32, ptr %4, align 4, !tbaa !9
  call void (ptr, ...) @test_note(ptr noundef @.str.247, i32 noundef %61)
  br label %104

62:                                               ; preds = %52
  br label %63

63:                                               ; preds = %62
  %64 = load i32, ptr %4, align 4, !tbaa !9
  %65 = add nsw i32 %64, 1
  store i32 %65, ptr %4, align 4, !tbaa !9
  br label %19, !llvm.loop !50

66:                                               ; preds = %19
  store i32 1, ptr %4, align 4, !tbaa !9
  br label %67

67:                                               ; preds = %90, %66
  %68 = load i32, ptr %4, align 4, !tbaa !9
  %69 = icmp sle i32 %68, 10000
  br i1 %69, label %70, label %93

70:                                               ; preds = %67
  %71 = getelementptr inbounds [50 x i8], ptr %6, i64 0, i64 0
  %72 = load i32, ptr %4, align 4, !tbaa !9
  %73 = call i32 (ptr, i64, ptr, ...) @BIO_snprintf(ptr noundef %71, i64 noundef 50, ptr noundef @.str.240, i32 noundef %72)
  %74 = load ptr, ptr %3, align 8, !tbaa !4
  %75 = load i32, ptr %4, align 4, !tbaa !9
  %76 = getelementptr inbounds [50 x i8], ptr %6, i64 0, i64 0
  %77 = call i32 @ossl_method_store_cache_get(ptr noundef %74, ptr noundef null, i32 noundef %75, ptr noundef %76, ptr noundef %7)
  %78 = icmp ne i32 %77, 0
  br i1 %78, label %79, label %86

79:                                               ; preds = %70
  %80 = load ptr, ptr %7, align 8, !tbaa !36
  %81 = getelementptr inbounds [10001 x i32], ptr %9, i64 0, i64 0
  %82 = load i32, ptr %4, align 4, !tbaa !9
  %83 = sext i32 %82 to i64
  %84 = getelementptr inbounds i32, ptr %81, i64 %83
  %85 = icmp ne ptr %80, %84
  br i1 %85, label %86, label %89

86:                                               ; preds = %79, %70
  %87 = load i32, ptr %8, align 4, !tbaa !9
  %88 = add nsw i32 %87, 1
  store i32 %88, ptr %8, align 4, !tbaa !9
  br label %89

89:                                               ; preds = %86, %79
  br label %90

90:                                               ; preds = %89
  %91 = load i32, ptr %4, align 4, !tbaa !9
  %92 = add nsw i32 %91, 1
  store i32 %92, ptr %4, align 4, !tbaa !9
  br label %67, !llvm.loop !51

93:                                               ; preds = %67
  %94 = load i32, ptr %8, align 4, !tbaa !9
  %95 = call i32 @test_int_gt(ptr noundef @.str.12, i32 noundef 599, ptr noundef @.str.248, ptr noundef @.str.249, i32 noundef %94, i32 noundef 10)
  %96 = icmp ne i32 %95, 0
  br i1 %96, label %97, label %101

97:                                               ; preds = %93
  %98 = load i32, ptr %8, align 4, !tbaa !9
  %99 = call i32 @test_int_lt(ptr noundef @.str.12, i32 noundef 599, ptr noundef @.str.248, ptr noundef @.str.250, i32 noundef %98, i32 noundef 9990)
  %100 = icmp ne i32 %99, 0
  br label %101

101:                                              ; preds = %97, %93
  %102 = phi i1 [ false, %93 ], [ %100, %97 ]
  %103 = zext i1 %102 to i32
  store i32 %103, ptr %5, align 4, !tbaa !9
  br label %104

104:                                              ; preds = %101, %60, %17
  %105 = load ptr, ptr %3, align 8, !tbaa !4
  call void @ossl_method_store_free(ptr noundef %105)
  %106 = load i32, ptr %5, align 4, !tbaa !9
  call void @llvm.lifetime.end.p0(i64 4, ptr %10) #6
  call void @llvm.lifetime.end.p0(i64 40004, ptr %9) #6
  call void @llvm.lifetime.end.p0(i64 4, ptr %8) #6
  call void @llvm.lifetime.end.p0(i64 8, ptr %7) #6
  call void @llvm.lifetime.end.p0(i64 50, ptr %6) #6
  call void @llvm.lifetime.end.p0(i64 4, ptr %5) #6
  call void @llvm.lifetime.end.p0(i64 4, ptr %4) #6
  call void @llvm.lifetime.end.p0(i64 8, ptr %3) #6
  call void @llvm.lifetime.end.p0(i64 4, ptr %2) #6
  call void @llvm.lifetime.end.p0(i64 4, ptr %1) #6
  ret i32 %106
}