; Function Attrs: nounwind uwtable
define internal range(i32 0, 2) i32 @test_query_cache_stochastic() #0 {
  %1 = alloca [50 x i8], align 16
  %2 = alloca ptr, align 8
  %3 = alloca [10001 x i32], align 16
  %4 = alloca %struct.ossl_provider_st, align 4
  call void @llvm.lifetime.start.p0(i64 50, ptr nonnull %1) #6
  call void @llvm.lifetime.start.p0(i64 8, ptr nonnull %2) #6
  call void @llvm.lifetime.start.p0(i64 40004, ptr nonnull %3) #6
  call void @llvm.lifetime.start.p0(i64 4, ptr nonnull %4) #6
  store i32 1, ptr %4, align 4
  %5 = tail call ptr @ossl_method_store_new(ptr noundef null) #6
  %6 = tail call i32 @test_ptr(ptr noundef nonnull @.str.12, i32 noundef 573, ptr noundef nonnull @.str.70, ptr noundef %5) #6
  %.not = icmp eq i32 %6, 0
  br i1 %.not, label %41, label %7

7:                                                ; preds = %0
  %8 = tail call i32 (ptr, ...) @add_property_names(ptr noundef nonnull @.str.85, ptr noundef null)
  %.not26 = icmp eq i32 %8, 0
  br i1 %.not26, label %41, label %.preheader35

.preheader35:                                     ; preds = %7, %28
  %indvars.iv = phi i64 [ %indvars.iv.next, %28 ], [ 1, %7 ]
  %9 = getelementptr inbounds nuw [10001 x i32], ptr %3, i64 0, i64 %indvars.iv
  %indvars.iv.tr = trunc i64 %indvars.iv to i32
  %10 = shl i32 %indvars.iv.tr, 1
  store i32 %10, ptr %9, align 4, !tbaa !41
  %11 = trunc nuw nsw i64 %indvars.iv to i32
  %12 = call i32 (ptr, i64, ptr, ...) @BIO_snprintf(ptr noundef nonnull %1, i64 noundef 50, ptr noundef nonnull @.str.240, i32 noundef %11) #6
  %13 = call i32 @ossl_method_store_add(ptr noundef %5, ptr noundef nonnull %4, i32 noundef %11, ptr noundef nonnull %1, ptr noundef nonnull @.str.242, ptr noundef nonnull @up_ref, ptr noundef nonnull @down_ref) #6
  %14 = icmp ne i32 %13, 0
  %15 = zext i1 %14 to i32
  %16 = call i32 @test_true(ptr noundef nonnull @.str.12, i32 noundef 581, ptr noundef nonnull @.str.241, i32 noundef %15) #6
  %.not30 = icmp eq i32 %16, 0
  br i1 %.not30, label %27, label %17

17:                                               ; preds = %.preheader35
  %18 = call i32 @ossl_method_store_cache_set(ptr noundef %5, ptr noundef nonnull %4, i32 noundef %11, ptr noundef nonnull %1, ptr noundef nonnull %9, ptr noundef nonnull @up_ref, ptr noundef nonnull @down_ref) #6
  %19 = icmp ne i32 %18, 0
  %20 = zext i1 %19 to i32
  %21 = call i32 @test_true(ptr noundef nonnull @.str.12, i32 noundef 584, ptr noundef nonnull @.str.243, i32 noundef %20) #6
  %.not31 = icmp eq i32 %21, 0
  br i1 %.not31, label %27, label %22

22:                                               ; preds = %17
  %23 = call i32 @ossl_method_store_cache_set(ptr noundef %5, ptr noundef nonnull %4, i32 noundef %11, ptr noundef nonnull @.str.245, ptr noundef nonnull @.str.246, ptr noundef nonnull @up_ref, ptr noundef nonnull @down_ref) #6
  %24 = icmp ne i32 %23, 0
  %25 = zext i1 %24 to i32
  %26 = call i32 @test_true(ptr noundef nonnull @.str.12, i32 noundef 587, ptr noundef nonnull @.str.244, i32 noundef %25) #6
  %.not32 = icmp eq i32 %26, 0
  br i1 %.not32, label %27, label %28

27:                                               ; preds = %22, %17, %.preheader35
  call void (ptr, ...) @test_note(ptr noundef nonnull @.str.247, i32 noundef %11) #6
  br label %41

28:                                               ; preds = %22
  %indvars.iv.next = add nuw nsw i64 %indvars.iv, 1
  %exitcond.not = icmp eq i64 %indvars.iv.next, 10001
  br i1 %exitcond.not, label %.preheader, label %.preheader35, !llvm.loop !42

.preheader:                                       ; preds = %28, %.preheader
  %indvars.iv42 = phi i64 [ %indvars.iv.next43, %.preheader ], [ 1, %28 ]
  %.039 = phi i32 [ %.1, %.preheader ], [ 0, %28 ]
  %29 = trunc nuw nsw i64 %indvars.iv42 to i32
  %30 = call i32 (ptr, i64, ptr, ...) @BIO_snprintf(ptr noundef nonnull %1, i64 noundef 50, ptr noundef nonnull @.str.240, i32 noundef %29) #6
  %31 = call i32 @ossl_method_store_cache_get(ptr noundef %5, ptr noundef null, i32 noundef %29, ptr noundef nonnull %1, ptr noundef nonnull %2) #6
  %.not28 = icmp eq i32 %31, 0
  %32 = load ptr, ptr %2, align 8
  %33 = getelementptr inbounds nuw i32, ptr %3, i64 %indvars.iv42
  %.not29 = icmp ne ptr %32, %33
  %or.cond.not = select i1 %.not28, i1 true, i1 %.not29
  %34 = zext i1 %or.cond.not to i32
  %.1 = add nuw nsw i32 %.039, %34
  %indvars.iv.next43 = add nuw nsw i64 %indvars.iv42, 1
  %exitcond45.not = icmp eq i64 %indvars.iv.next43, 10001
  br i1 %exitcond45.not, label %35, label %.preheader, !llvm.loop !43

35:                                               ; preds = %.preheader
  %36 = call i32 @test_int_gt(ptr noundef nonnull @.str.12, i32 noundef 599, ptr noundef nonnull @.str.248, ptr noundef nonnull @.str.249, i32 noundef %.1, i32 noundef 10) #6
  %.not27 = icmp eq i32 %36, 0
  br i1 %.not27, label %41, label %37

37:                                               ; preds = %35
  %38 = call i32 @test_int_lt(ptr noundef nonnull @.str.12, i32 noundef 599, ptr noundef nonnull @.str.248, ptr noundef nonnull @.str.250, i32 noundef %.1, i32 noundef 9990) #6
  %39 = icmp ne i32 %38, 0
  %40 = zext i1 %39 to i32
  br label %41

41:                                               ; preds = %35, %37, %0, %7, %27
  %.023 = phi i32 [ 0, %27 ], [ 0, %7 ], [ 0, %0 ], [ 0, %35 ], [ %40, %37 ]
  call void @ossl_method_store_free(ptr noundef %5) #6
  call void @llvm.lifetime.end.p0(i64 4, ptr nonnull %4) #6
  call void @llvm.lifetime.end.p0(i64 40004, ptr nonnull %3) #6
  call void @llvm.lifetime.end.p0(i64 8, ptr nonnull %2) #6
  call void @llvm.lifetime.end.p0(i64 50, ptr nonnull %1) #6
  ret i32 %.023
}